target datalayout = "e-m:e-p270:32:32-p271:32:32-p272:64:64-i64:64-i128:128-f80:128-n8:16:32:64-S128"
target triple = "x86_64-pc-linux-gnu"

%struct._lv_scale_t = type <{ %struct._lv_obj_t, %struct.lv_ll_t, ptr, i32, i32, i32, i64, i32, i32, i32, i32, i32 }>
%struct._lv_obj_t = type { ptr, ptr, ptr, ptr, ptr, %struct.lv_area_t, i32, i16, i16 }
%struct.lv_area_t = type { i32, i32, i32, i32 }
%struct.lv_ll_t = type { i32, ptr, ptr }

; Function Attrs: nounwind uwtable
define internal void @lv_scale_constructor(ptr noundef %0, ptr noundef %1) #0 {
  %3 = alloca ptr, align 8
  %4 = alloca ptr, align 8
  %5 = alloca ptr, align 8
  store ptr %0, ptr %3, align 8, !tbaa !3
  store ptr %1, ptr %4, align 8, !tbaa !3
  call void @llvm.lifetime.start.p0(i64 8, ptr %5) #7
  %6 = load ptr, ptr %4, align 8, !tbaa !3
  store ptr %6, ptr %5, align 8, !tbaa !3
  %7 = load ptr, ptr %5, align 8, !tbaa !3
  %8 = getelementptr inbounds nuw %struct._lv_scale_t, ptr %7, i32 0, i32 1
  call void @lv_ll_init(ptr noundef %8, i32 noundef 72)
  %9 = load ptr, ptr %5, align 8, !tbaa !3
  %10 = getelementptr inbounds nuw %struct._lv_scale_t, ptr %9, i32 0, i32 6
  %11 = load i64, ptr %10, align 4
  %12 = and i64 %11, -32768
  %13 = or i64 %12, 11
  store i64 %13, ptr %10, align 4
  %14 = load ptr, ptr %5, align 8, !tbaa !3
  %15 = getelementptr inbounds nuw %struct._lv_scale_t, ptr %14, i32 0, i32 6
  %16 = load i64, ptr %15, align 4
  %17 = and i64 %16, -1073709057
  %18 = or i64 %17, 163840
  store i64 %18, ptr %15, align 4
  %19 = load ptr, ptr %5, align 8, !tbaa !3
  %20 = getelementptr inbounds nuw %struct._lv_scale_t, ptr %19, i32 0, i32 3
  store i32 1, ptr %20, align 8, !tbaa !7
  %21 = load ptr, ptr %5, align 8, !tbaa !3
  %22 = getelementptr inbounds nuw %struct._lv_scale_t, ptr %21, i32 0, i32 6
  %23 = load i64, ptr %22, align 4
  %24 = and i64 %23, -1073741825
  %25 = or i64 %24, 1073741824
  store i64 %25, ptr %22, align 4
  %26 = load ptr, ptr %5, align 8, !tbaa !3
  %27 = getelementptr inbounds nuw %struct._lv_scale_t, ptr %26, i32 0, i32 7
  store i32 270, ptr %27, align 4, !tbaa !14
  %28 = load ptr, ptr %5, align 8, !tbaa !3
  %29 = getelementptr inbounds nuw %struct._lv_scale_t, ptr %28, i32 0, i32 8
  store i32 135, ptr %29, align 8, !tbaa !15
  %30 = load ptr, ptr %5, align 8, !tbaa !3
  %31 = getelementptr inbounds nuw %struct._lv_scale_t, ptr %30, i32 0, i32 4
  store i32 0, ptr %31, align 4, !tbaa !16
  %32 = load ptr, ptr %5, align 8, !tbaa !3
  %33 = getelementptr inbounds nuw %struct._lv_scale_t, ptr %32, i32 0, i32 5
  store i32 100, ptr %33, align 8, !tbaa !17
  %34 = load ptr, ptr %5, align 8, !tbaa !3
  %35 = getelementptr inbounds nuw %struct._lv_scale_t, ptr %34, i32 0, i32 10
  store i32 0, ptr %35, align 8, !tbaa !18
  %36 = load ptr, ptr %5, align 8, !tbaa !3
  %37 = getelementptr inbounds nuw %struct._lv_scale_t, ptr %36, i32 0, i32 11
  store i32 0, ptr %37, align 4, !tbaa !19
  %38 = load ptr, ptr %5, align 8, !tbaa !3
  %39 = getelementptr inbounds nuw %struct._lv_scale_t, ptr %38, i32 0, i32 6
  %40 = load i64, ptr %39, align 4
  %41 = and i64 %40, -2147483649
  %42 = or i64 %41, 0
  store i64 %42, ptr %39, align 4
  %43 = load ptr, ptr %5, align 8, !tbaa !3
  %44 = getelementptr inbounds nuw %struct._lv_scale_t, ptr %43, i32 0, i32 6
  %45 = load i64, ptr %44, align 4
  %46 = and i64 %45, -4294967297
  %47 = or i64 %46, 0
  store i64 %47, ptr %44, align 4
  %48 = load ptr, ptr %5, align 8, !tbaa !3
  %49 = getelementptr inbounds nuw %struct._lv_scale_t, ptr %48, i32 0, i32 9
  store i32 0, ptr %49, align 4, !tbaa !20
  %50 = load ptr, ptr %5, align 8, !tbaa !3
  %51 = getelementptr inbounds nuw %struct._lv_scale_t, ptr %50, i32 0, i32 2
  store ptr null, ptr %51, align 8, !tbaa !21
  %52 = load ptr, ptr %4, align 8, !tbaa !3
  call void @lv_obj_remove_flag(ptr noundef %52, i32 noundef 16)
  call void @llvm.lifetime.end.p0(i64 8, ptr %5) #7
  ret void
}