; Function Attrs: nounwind uwtable
define internal void @lv_scale_constructor(ptr nocapture readnone %0, ptr noundef %1) #0 {
  %3 = getelementptr inbounds nuw i8, ptr %1, i64 64
  tail call void @lv_ll_init(ptr noundef nonnull %3, i32 noundef 72) #9
  %4 = getelementptr inbounds nuw i8, ptr %1, i64 108
  %5 = load i64, ptr %4, align 4
  %6 = getelementptr inbounds nuw i8, ptr %1, i64 96
  store i32 1, ptr %6, align 8, !tbaa !3
  %7 = getelementptr inbounds nuw i8, ptr %1, i64 116
  store i32 270, ptr %7, align 4, !tbaa !13
  %8 = getelementptr inbounds nuw i8, ptr %1, i64 120
  store i32 135, ptr %8, align 8, !tbaa !14
  %9 = getelementptr inbounds nuw i8, ptr %1, i64 100
  store i32 0, ptr %9, align 4, !tbaa !15
  %10 = getelementptr inbounds nuw i8, ptr %1, i64 104
  store i32 100, ptr %10, align 8, !tbaa !16
  %11 = getelementptr inbounds nuw i8, ptr %1, i64 128
  store i32 0, ptr %11, align 8, !tbaa !17
  %12 = getelementptr inbounds nuw i8, ptr %1, i64 132
  store i32 0, ptr %12, align 4, !tbaa !18
  %13 = and i64 %5, -8589934592
  %14 = or disjoint i64 %13, 1073905675
  store i64 %14, ptr %4, align 4
  %15 = getelementptr inbounds nuw i8, ptr %1, i64 124
  store i32 0, ptr %15, align 4, !tbaa !19
  %16 = getelementptr inbounds nuw i8, ptr %1, i64 88
  store ptr null, ptr %16, align 8, !tbaa !20
  tail call void @lv_obj_remove_flag(ptr noundef %1, i32 noundef 16) #9
  ret void
}